target datalayout = "e-m:e-p270:32:32-p271:32:32-p272:64:64-i64:64-i128:128-f80:128-n8:16:32:64-S128"
target triple = "x86_64-pc-linux-gnu"

%struct.keccak_st = type { [5 x [5 x i64]], [168 x i8], i64, i64, i64, i8, %struct.prov_sha3_meth_st, i32 }
%struct.prov_sha3_meth_st = type { ptr, ptr, ptr }

; Function Attrs: nounwind uwtable
define i32 @ossl_sha3_squeeze(ptr noundef %0, ptr noundef %1, i64 noundef %2) #0 {
  %4 = alloca i32, align 4
  %5 = alloca ptr, align 8
  %6 = alloca ptr, align 8
  %7 = alloca i64, align 8
  %8 = alloca i64, align 8
  %9 = alloca i64, align 8
  %10 = alloca i64, align 8
  %11 = alloca i32, align 4
  %12 = alloca i32, align 4
  store ptr %0, ptr %5, align 8, !tbaa !3
  store ptr %1, ptr %6, align 8, !tbaa !21
  store i64 %2, ptr %7, align 8, !tbaa !15
  call void @llvm.lifetime.start.p0(i64 8, ptr %8) #5
  %13 = load ptr, ptr %5, align 8, !tbaa !3
  %14 = getelementptr inbounds nuw %struct.keccak_st, ptr %13, i32 0, i32 2
  %15 = load i64, ptr %14, align 8, !tbaa !16
  store i64 %15, ptr %8, align 8, !tbaa !15
  call void @llvm.lifetime.start.p0(i64 8, ptr %9) #5
  %16 = load ptr, ptr %5, align 8, !tbaa !3
  %17 = getelementptr inbounds nuw %struct.keccak_st, ptr %16, i32 0, i32 4
  %18 = load i64, ptr %17, align 8, !tbaa !8
  store i64 %18, ptr %9, align 8, !tbaa !15
  call void @llvm.lifetime.start.p0(i64 8, ptr %10) #5
  call void @llvm.lifetime.start.p0(i64 4, ptr %11) #5
  store i32 1, ptr %11, align 4, !tbaa !19
  %19 = load i64, ptr %7, align 8, !tbaa !15
  %20 = icmp eq i64 %19, 0
  br i1 %20, label %21, label %22

21:                                               ; preds = %3
  store i32 1, ptr %4, align 4
  store i32 1, ptr %12, align 4
  br label %161

22:                                               ; preds = %3
  %23 = load ptr, ptr %5, align 8, !tbaa !3
  %24 = getelementptr inbounds nuw %struct.keccak_st, ptr %23, i32 0, i32 7
  %25 = load i32, ptr %24, align 8, !tbaa !13
  %26 = icmp eq i32 %25, 2
  br i1 %26, label %27, label %28

27:                                               ; preds = %22
  store i32 0, ptr %4, align 4
  store i32 1, ptr %12, align 4
  br label %161

28:                                               ; preds = %22
  %29 = load ptr, ptr %5, align 8, !tbaa !3
  %30 = getelementptr inbounds nuw %struct.keccak_st, ptr %29, i32 0, i32 7
  %31 = load i32, ptr %30, align 8, !tbaa !13
  %32 = icmp ne i32 %31, 3
  br i1 %32, label %33, label %71

33:                                               ; preds = %28
  %34 = load ptr, ptr %5, align 8, !tbaa !3
  %35 = getelementptr inbounds nuw %struct.keccak_st, ptr %34, i32 0, i32 1
  %36 = getelementptr inbounds [168 x i8], ptr %35, i64 0, i64 0
  %37 = load i64, ptr %9, align 8, !tbaa !15
  %38 = getelementptr inbounds nuw i8, ptr %36, i64 %37
  %39 = load i64, ptr %8, align 8, !tbaa !15
  %40 = load i64, ptr %9, align 8, !tbaa !15
  %41 = sub i64 %39, %40
  call void @llvm.memset.p0.i64(ptr align 1 %38, i8 0, i64 %41, i1 false)
  %42 = load ptr, ptr %5, align 8, !tbaa !3
  %43 = getelementptr inbounds nuw %struct.keccak_st, ptr %42, i32 0, i32 5
  %44 = load i8, ptr %43, align 8, !tbaa !18
  %45 = load ptr, ptr %5, align 8, !tbaa !3
  %46 = getelementptr inbounds nuw %struct.keccak_st, ptr %45, i32 0, i32 1
  %47 = load i64, ptr %9, align 8, !tbaa !15
  %48 = getelementptr inbounds nuw [168 x i8], ptr %46, i64 0, i64 %47
  store i8 %44, ptr %48, align 1, !tbaa !14
  %49 = load ptr, ptr %5, align 8, !tbaa !3
  %50 = getelementptr inbounds nuw %struct.keccak_st, ptr %49, i32 0, i32 1
  %51 = load i64, ptr %8, align 8, !tbaa !15
  %52 = sub i64 %51, 1
  %53 = getelementptr inbounds nuw [168 x i8], ptr %50, i64 0, i64 %52
  %54 = load i8, ptr %53, align 1, !tbaa !14
  %55 = zext i8 %54 to i32
  %56 = or i32 %55, 128
  %57 = trunc i32 %56 to i8
  store i8 %57, ptr %53, align 1, !tbaa !14
  %58 = load ptr, ptr %5, align 8, !tbaa !3
  %59 = getelementptr inbounds nuw %struct.keccak_st, ptr %58, i32 0, i32 0
  %60 = getelementptr inbounds [5 x [5 x i64]], ptr %59, i64 0, i64 0
  %61 = load ptr, ptr %5, align 8, !tbaa !3
  %62 = getelementptr inbounds nuw %struct.keccak_st, ptr %61, i32 0, i32 1
  %63 = getelementptr inbounds [168 x i8], ptr %62, i64 0, i64 0
  %64 = load i64, ptr %8, align 8, !tbaa !15
  %65 = load i64, ptr %8, align 8, !tbaa !15
  %66 = call i64 @SHA3_absorb(ptr noundef %60, ptr noundef %63, i64 noundef %64, i64 noundef %65)
  %67 = load ptr, ptr %5, align 8, !tbaa !3
  %68 = getelementptr inbounds nuw %struct.keccak_st, ptr %67, i32 0, i32 7
  store i32 3, ptr %68, align 8, !tbaa !13
  %69 = load ptr, ptr %5, align 8, !tbaa !3
  %70 = getelementptr inbounds nuw %struct.keccak_st, ptr %69, i32 0, i32 4
  store i64 0, ptr %70, align 8, !tbaa !8
  store i64 0, ptr %9, align 8, !tbaa !15
  store i32 0, ptr %11, align 4, !tbaa !19
  br label %71

71:                                               ; preds = %33, %28
  %72 = load i64, ptr %9, align 8, !tbaa !15
  %73 = icmp ne i64 %72, 0
  br i1 %73, label %74, label %110

74:                                               ; preds = %71
  %75 = load i64, ptr %7, align 8, !tbaa !15
  %76 = load ptr, ptr %5, align 8, !tbaa !3
  %77 = getelementptr inbounds nuw %struct.keccak_st, ptr %76, i32 0, i32 4
  %78 = load i64, ptr %77, align 8, !tbaa !8
  %79 = icmp ugt i64 %75, %78
  br i1 %79, label %80, label %84

80:                                               ; preds = %74
  %81 = load ptr, ptr %5, align 8, !tbaa !3
  %82 = getelementptr inbounds nuw %struct.keccak_st, ptr %81, i32 0, i32 4
  %83 = load i64, ptr %82, align 8, !tbaa !8
  store i64 %83, ptr %10, align 8, !tbaa !15
  br label %86

84:                                               ; preds = %74
  %85 = load i64, ptr %7, align 8, !tbaa !15
  store i64 %85, ptr %10, align 8, !tbaa !15
  br label %86

86:                                               ; preds = %84, %80
  %87 = load ptr, ptr %6, align 8, !tbaa !21
  %88 = load ptr, ptr %5, align 8, !tbaa !3
  %89 = getelementptr inbounds nuw %struct.keccak_st, ptr %88, i32 0, i32 1
  %90 = getelementptr inbounds [168 x i8], ptr %89, i64 0, i64 0
  %91 = load i64, ptr %8, align 8, !tbaa !15
  %92 = getelementptr inbounds nuw i8, ptr %90, i64 %91
  %93 = load ptr, ptr %5, align 8, !tbaa !3
  %94 = getelementptr inbounds nuw %struct.keccak_st, ptr %93, i32 0, i32 4
  %95 = load i64, ptr %94, align 8, !tbaa !8
  %96 = sub i64 0, %95
  %97 = getelementptr inbounds i8, ptr %92, i64 %96
  %98 = load i64, ptr %10, align 8, !tbaa !15
  call void @llvm.memcpy.p0.p0.i64(ptr align 1 %87, ptr align 1 %97, i64 %98, i1 false)
  %99 = load i64, ptr %10, align 8, !tbaa !15
  %100 = load ptr, ptr %6, align 8, !tbaa !21
  %101 = getelementptr inbounds nuw i8, ptr %100, i64 %99
  store ptr %101, ptr %6, align 8, !tbaa !21
  %102 = load i64, ptr %10, align 8, !tbaa !15
  %103 = load i64, ptr %7, align 8, !tbaa !15
  %104 = sub i64 %103, %102
  store i64 %104, ptr %7, align 8, !tbaa !15
  %105 = load i64, ptr %10, align 8, !tbaa !15
  %106 = load ptr, ptr %5, align 8, !tbaa !3
  %107 = getelementptr inbounds nuw %struct.keccak_st, ptr %106, i32 0, i32 4
  %108 = load i64, ptr %107, align 8, !tbaa !8
  %109 = sub i64 %108, %105
  store i64 %109, ptr %107, align 8, !tbaa !8
  br label %110

110:                                              ; preds = %86, %71
  %111 = load i64, ptr %7, align 8, !tbaa !15
  %112 = icmp eq i64 %111, 0
  br i1 %112, label %113, label %114

113:                                              ; preds = %110
  store i32 1, ptr %4, align 4
  store i32 1, ptr %12, align 4
  br label %161

114:                                              ; preds = %110
  %115 = load i64, ptr %7, align 8, !tbaa !15
  %116 = load i64, ptr %8, align 8, !tbaa !15
  %117 = icmp uge i64 %115, %116
  br i1 %117, label %118, label %137

118:                                              ; preds = %114
  %119 = load i64, ptr %8, align 8, !tbaa !15
  %120 = load i64, ptr %7, align 8, !tbaa !15
  %121 = load i64, ptr %8, align 8, !tbaa !15
  %122 = udiv i64 %120, %121
  %123 = mul i64 %119, %122
  store i64 %123, ptr %10, align 8, !tbaa !15
  %124 = load ptr, ptr %5, align 8, !tbaa !3
  %125 = getelementptr inbounds nuw %struct.keccak_st, ptr %124, i32 0, i32 0
  %126 = getelementptr inbounds [5 x [5 x i64]], ptr %125, i64 0, i64 0
  %127 = load ptr, ptr %6, align 8, !tbaa !21
  %128 = load i64, ptr %10, align 8, !tbaa !15
  %129 = load i64, ptr %8, align 8, !tbaa !15
  %130 = load i32, ptr %11, align 4, !tbaa !19
  call void @SHA3_squeeze(ptr noundef %126, ptr noundef %127, i64 noundef %128, i64 noundef %129, i32 noundef %130)
  store i32 1, ptr %11, align 4, !tbaa !19
  %131 = load i64, ptr %10, align 8, !tbaa !15
  %132 = load ptr, ptr %6, align 8, !tbaa !21
  %133 = getelementptr inbounds nuw i8, ptr %132, i64 %131
  store ptr %133, ptr %6, align 8, !tbaa !21
  %134 = load i64, ptr %10, align 8, !tbaa !15
  %135 = load i64, ptr %7, align 8, !tbaa !15
  %136 = sub i64 %135, %134
  store i64 %136, ptr %7, align 8, !tbaa !15
  br label %137

137:                                              ; preds = %118, %114
  %138 = load i64, ptr %7, align 8, !tbaa !15
  %139 = icmp ugt i64 %138, 0
  br i1 %139, label %140, label %160

140:                                              ; preds = %137
  %141 = load ptr, ptr %5, align 8, !tbaa !3
  %142 = getelementptr inbounds nuw %struct.keccak_st, ptr %141, i32 0, i32 0
  %143 = getelementptr inbounds [5 x [5 x i64]], ptr %142, i64 0, i64 0
  %144 = load ptr, ptr %5, align 8, !tbaa !3
  %145 = getelementptr inbounds nuw %struct.keccak_st, ptr %144, i32 0, i32 1
  %146 = getelementptr inbounds [168 x i8], ptr %145, i64 0, i64 0
  %147 = load i64, ptr %8, align 8, !tbaa !15
  %148 = load i64, ptr %8, align 8, !tbaa !15
  %149 = load i32, ptr %11, align 4, !tbaa !19
  call void @SHA3_squeeze(ptr noundef %143, ptr noundef %146, i64 noundef %147, i64 noundef %148, i32 noundef %149)
  %150 = load ptr, ptr %6, align 8, !tbaa !21
  %151 = load ptr, ptr %5, align 8, !tbaa !3
  %152 = getelementptr inbounds nuw %struct.keccak_st, ptr %151, i32 0, i32 1
  %153 = getelementptr inbounds [168 x i8], ptr %152, i64 0, i64 0
  %154 = load i64, ptr %7, align 8, !tbaa !15
  call void @llvm.memcpy.p0.p0.i64(ptr align 1 %150, ptr align 8 %153, i64 %154, i1 false)
  %155 = load i64, ptr %8, align 8, !tbaa !15
  %156 = load i64, ptr %7, align 8, !tbaa !15
  %157 = sub i64 %155, %156
  %158 = load ptr, ptr %5, align 8, !tbaa !3
  %159 = getelementptr inbounds nuw %struct.keccak_st, ptr %158, i32 0, i32 4
  store i64 %157, ptr %159, align 8, !tbaa !8
  br label %160

160:                                              ; preds = %140, %137
  store i32 1, ptr %4, align 4
  store i32 1, ptr %12, align 4
  br label %161

161:                                              ; preds = %160, %113, %27, %21
  call void @llvm.lifetime.end.p0(i64 4, ptr %11) #5
  call void @llvm.lifetime.end.p0(i64 8, ptr %10) #5
  call void @llvm.lifetime.end.p0(i64 8, ptr %9) #5
  call void @llvm.lifetime.end.p0(i64 8, ptr %8) #5
  %162 = load i32, ptr %4, align 4
  ret i32 %162
}