; Function Attrs: nounwind uwtable
define range(i32 0, 2) i32 @ossl_sha3_squeeze(ptr noundef %0, ptr noundef %1, i64 noundef %2) local_unnamed_addr #2 {
  %4 = getelementptr inbounds nuw i8, ptr %0, i64 368
  %5 = load i64, ptr %4, align 8, !tbaa !12
  %6 = getelementptr inbounds nuw i8, ptr %0, i64 384
  %7 = load i64, ptr %6, align 8, !tbaa !3
  %8 = freeze i64 %7
  %9 = icmp eq i64 %2, 0
  br i1 %9, label %40, label %10

10:                                               ; preds = %3
  %11 = getelementptr inbounds nuw i8, ptr %0, i64 424
  %12 = load i32, ptr %11, align 8, !tbaa !11
  switch i32 %12, label %.thread [
    i32 2, label %40
    i32 3, label %23
  ]

.thread:                                          ; preds = %10
  %13 = getelementptr inbounds nuw i8, ptr %0, i64 200
  %14 = getelementptr inbounds nuw i8, ptr %13, i64 %8
  %15 = sub i64 %5, %8
  tail call void @llvm.memset.p0.i64(ptr nonnull align 1 %14, i8 0, i64 %15, i1 false)
  %16 = getelementptr inbounds nuw i8, ptr %0, i64 392
  %17 = load i8, ptr %16, align 8, !tbaa !14
  store i8 %17, ptr %14, align 1, !tbaa !15
  %18 = add i64 %5, -1
  %19 = getelementptr inbounds nuw [168 x i8], ptr %13, i64 0, i64 %18
  %20 = load i8, ptr %19, align 1, !tbaa !15
  %21 = or i8 %20, -128
  store i8 %21, ptr %19, align 1, !tbaa !15
  %22 = tail call i64 @SHA3_absorb(ptr noundef nonnull %0, ptr noundef nonnull %13, i64 noundef %5, i64 noundef %5) #6
  store i32 3, ptr %11, align 8, !tbaa !11
  store i64 0, ptr %6, align 8, !tbaa !3
  br label %.thread81

23:                                               ; preds = %10
  %.not74 = icmp eq i64 %8, 0
  br i1 %.not74, label %.thread81, label %24

24:                                               ; preds = %23
  %. = tail call i64 @llvm.umin.i64(i64 %2, i64 %8)
  %25 = getelementptr inbounds nuw i8, ptr %0, i64 200
  %26 = getelementptr inbounds nuw i8, ptr %25, i64 %5
  %27 = sub i64 0, %8
  %28 = getelementptr inbounds i8, ptr %26, i64 %27
  tail call void @llvm.memcpy.p0.p0.i64(ptr align 1 %1, ptr nonnull align 1 %28, i64 %., i1 false)
  %29 = getelementptr inbounds nuw i8, ptr %1, i64 %.
  %30 = sub i64 %2, %.
  %31 = load i64, ptr %6, align 8, !tbaa !3
  %32 = sub i64 %31, %.
  store i64 %32, ptr %6, align 8, !tbaa !3
  %33 = icmp eq i64 %30, 0
  br i1 %33, label %40, label %.thread81

.thread81:                                        ; preds = %.thread, %23, %24
  %.06687 = phi i64 [ %30, %24 ], [ %2, %23 ], [ %2, %.thread ]
  %.06886 = phi ptr [ %29, %24 ], [ %1, %23 ], [ %1, %.thread ]
  %.08085 = phi i32 [ 1, %24 ], [ 1, %23 ], [ 0, %.thread ]
  %.not75 = icmp ult i64 %.06687, %5
  br i1 %.not75, label %.thread88, label %34

34:                                               ; preds = %.thread81
  %35 = urem i64 %.06687, %5
  %36 = sub nuw i64 %.06687, %35
  tail call void @SHA3_squeeze(ptr noundef nonnull %0, ptr noundef %.06886, i64 noundef %36, i64 noundef %5, i32 noundef %.08085) #6
  %37 = getelementptr inbounds nuw i8, ptr %.06886, i64 %36
  %.not76 = icmp eq i64 %35, 0
  br i1 %.not76, label %40, label %.thread88

.thread88:                                        ; preds = %.thread81, %34
  %.195 = phi i32 [ 1, %34 ], [ %.08085, %.thread81 ]
  %.16794 = phi i64 [ %35, %34 ], [ %.06687, %.thread81 ]
  %.16993 = phi ptr [ %37, %34 ], [ %.06886, %.thread81 ]
  %38 = getelementptr inbounds nuw i8, ptr %0, i64 200
  tail call void @SHA3_squeeze(ptr noundef nonnull %0, ptr noundef nonnull %38, i64 noundef %5, i64 noundef %5, i32 noundef %.195) #6
  tail call void @llvm.memcpy.p0.p0.i64(ptr align 1 %.16993, ptr nonnull align 8 %38, i64 %.16794, i1 false)
  %39 = sub i64 %5, %.16794
  store i64 %39, ptr %6, align 8, !tbaa !3
  br label %40

40:                                               ; preds = %34, %.thread88, %24, %10, %3
  %.065 = phi i32 [ 1, %3 ], [ 0, %10 ], [ 1, %24 ], [ 1, %.thread88 ], [ 1, %34 ]
  ret i32 %.065
}